; ModuleID = '23/885.c'
source_filename = "23/885.c"
target datalayout = "e-m:e-p270:32:32-p271:32:32-p272:64:64-i64:64-f80:128-n8:16:32:64-S128"
target triple = "x86_64-pc-linux-gnu"

@.str = private unnamed_addr constant [3 x i8] c"%c\00", align 1
@.str.1 = private unnamed_addr constant [2 x i8] c" \00", align 1

; Function Attrs: noinline nounwind uwtable
define dso_local i32 @main() #0 {
  %1 = alloca i32, align 4
  %2 = alloca [10 x [10 x i8]], align 16
  %3 = alloca [100 x i8], align 16
  %4 = alloca [10 x i8], align 1
  %5 = alloca [10 x i8], align 1
  %6 = alloca [10 x i8], align 1
  %7 = alloca [10 x i8], align 1
  %8 = alloca i32, align 4
  %9 = alloca i32, align 4
  %10 = alloca i32, align 4
  %11 = alloca [100 x i32], align 16
  %12 = alloca i32, align 4
  %13 = alloca i32, align 4
  %14 = alloca i32, align 4
  %15 = alloca i32, align 4
  %16 = alloca i32, align 4
  store i32 0, i32* %1, align 4
  %17 = getelementptr inbounds [100 x i8], [100 x i8]* %3, i64 0, i64 0
  %18 = call i32 (i8*, ...) bitcast (i32 (...)* @gets to i32 (i8*, ...)*)(i8* %17)
  %19 = getelementptr inbounds [100 x i8], [100 x i8]* %3, i64 0, i64 0
  %20 = call i64 @strlen(i8* %19) #3
  %21 = trunc i64 %20 to i32
  store i32 %21, i32* %10, align 4
  store i32 1, i32* %9, align 4
  %22 = getelementptr inbounds [100 x i32], [100 x i32]* %11, i64 0, i64 0
  store i32 -1, i32* %22, align 16
  store i32 0, i32* %8, align 4
  br label %23

23:                                               ; preds = %42, %0
  %24 = load i32, i32* %8, align 4
  %25 = load i32, i32* %10, align 4
  %26 = icmp slt i32 %24, %25
  br i1 %26, label %27, label %45

27:                                               ; preds = %23
  %28 = load i32, i32* %8, align 4
  %29 = sext i32 %28 to i64
  %30 = getelementptr inbounds [100 x i8], [100 x i8]* %3, i64 0, i64 %29
  %31 = load i8, i8* %30, align 1
  %32 = sext i8 %31 to i32
  %33 = icmp eq i32 %32, 32
  br i1 %33, label %34, label %41

34:                                               ; preds = %27
  %35 = load i32, i32* %8, align 4
  %36 = load i32, i32* %9, align 4
  %37 = sext i32 %36 to i64
  %38 = getelementptr inbounds [100 x i32], [100 x i32]* %11, i64 0, i64 %37
  store i32 %35, i32* %38, align 4
  %39 = load i32, i32* %9, align 4
  %40 = add nsw i32 %39, 1
  store i32 %40, i32* %9, align 4
  br label %41

41:                                               ; preds = %34, %27
  br label %42

42:                                               ; preds = %41
  %43 = load i32, i32* %8, align 4
  %44 = add nsw i32 %43, 1
  store i32 %44, i32* %8, align 4
  br label %23

45:                                               ; preds = %23
  %46 = load i32, i32* %10, align 4
  %47 = load i32, i32* %9, align 4
  %48 = sext i32 %47 to i64
  %49 = getelementptr inbounds [100 x i32], [100 x i32]* %11, i64 0, i64 %48
  store i32 %46, i32* %49, align 4
  %50 = load i32, i32* %9, align 4
  store i32 %50, i32* %13, align 4
  br label %51

51:                                               ; preds = %88, %45
  %52 = load i32, i32* %13, align 4
  %53 = icmp sgt i32 %52, 0
  br i1 %53, label %54, label %91

54:                                               ; preds = %51
  %55 = load i32, i32* %13, align 4
  %56 = sext i32 %55 to i64
  %57 = getelementptr inbounds [100 x i32], [100 x i32]* %11, i64 0, i64 %56
  %58 = load i32, i32* %57, align 4
  %59 = sub nsw i32 %58, 1
  store i32 %59, i32* %14, align 4
  %60 = load i32, i32* %13, align 4
  %61 = sub nsw i32 %60, 1
  %62 = sext i32 %61 to i64
  %63 = getelementptr inbounds [100 x i32], [100 x i32]* %11, i64 0, i64 %62
  %64 = load i32, i32* %63, align 4
  %65 = add nsw i32 %64, 1
  store i32 %65, i32* %16, align 4
  %66 = load i32, i32* %16, align 4
  store i32 %66, i32* %12, align 4
  br label %67

67:                                               ; preds = %78, %54
  %68 = load i32, i32* %12, align 4
  %69 = load i32, i32* %14, align 4
  %70 = icmp sle i32 %68, %69
  br i1 %70, label %71, label %81

71:                                               ; preds = %67
  %72 = load i32, i32* %12, align 4
  %73 = sext i32 %72 to i64
  %74 = getelementptr inbounds [100 x i8], [100 x i8]* %3, i64 0, i64 %73
  %75 = load i8, i8* %74, align 1
  %76 = sext i8 %75 to i32
  %77 = call i32 (i8*, ...) @printf(i8* getelementptr inbounds ([3 x i8], [3 x i8]* @.str, i64 0, i64 0), i32 %76)
  br label %78

78:                                               ; preds = %71
  %79 = load i32, i32* %12, align 4
  %80 = add nsw i32 %79, 1
  store i32 %80, i32* %12, align 4
  br label %67

81:                                               ; preds = %67
  %82 = load i32, i32* %13, align 4
  %83 = icmp sgt i32 %82, 1
  br i1 %83, label %84, label %86

84:                                               ; preds = %81
  %85 = call i32 (i8*, ...) @printf(i8* getelementptr inbounds ([2 x i8], [2 x i8]* @.str.1, i64 0, i64 0))
  br label %87

86:                                               ; preds = %81
  br label %87

87:                                               ; preds = %86, %84
  br label %88

88:                                               ; preds = %87
  %89 = load i32, i32* %13, align 4
  %90 = add nsw i32 %89, -1
  store i32 %90, i32* %13, align 4
  br label %51

91:                                               ; preds = %51
  %92 = load i32, i32* %1, align 4
  ret i32 %92
}

declare dso_local i32 @gets(...) #1

; Function Attrs: nounwind readonly
declare dso_local i64 @strlen(i8*) #2

declare dso_local i32 @printf(i8*, ...) #1


!llvm.module.flags = !{!0}
!llvm.ident = !{!1}

!0 = !{i32 1, !"wchar_size", i32 4}
!1 = !{!"clang version 10.0.0-4ubuntu1 "}
