; ModuleID = 'source-C-CXX/22/885.c'
source_filename = "source-C-CXX/22/885.c"
target datalayout = "e-m:e-p270:32:32-p271:32:32-p272:64:64-i64:64-f80:128-n8:16:32:64-S128"
target triple = "x86_64-pc-linux-gnu"

; Function Attrs: nounwind sspstrong uwtable
define dso_local i32 @main() local_unnamed_addr #0 {
  %1 = alloca [100 x i8], align 16
  %2 = alloca [100 x i32], align 16
  %3 = getelementptr inbounds [100 x i8], [100 x i8]* %1, i64 0, i64 0
  call void @llvm.lifetime.start.p0i8(i64 100, i8* nonnull %3) #5
  %4 = bitcast [100 x i32]* %2 to i8*
  call void @llvm.lifetime.start.p0i8(i64 400, i8* nonnull %4) #5
  %5 = call i32 (i8*, ...) bitcast (i32 (...)* @gets to i32 (i8*, ...)*)(i8* nonnull %3) #5
  %6 = call i64 @strlen(i8* noundef nonnull %3) #6
  %7 = trunc i64 %6 to i32
  %8 = getelementptr inbounds [100 x i32], [100 x i32]* %2, i64 0, i64 0
  store i32 -1, i32* %8, align 16, !tbaa !5
  %9 = icmp sgt i32 %7, 0
  br i1 %9, label %12, label %10

10:                                               ; preds = %0
  %11 = getelementptr inbounds [100 x i32], [100 x i32]* %2, i64 0, i64 1
  store i32 %7, i32* %11, align 4, !tbaa !5
  br label %55

12:                                               ; preds = %0
  %13 = and i64 %6, 4294967295
  %14 = and i64 %6, 1
  %15 = icmp eq i64 %13, 1
  br i1 %15, label %36, label %16

16:                                               ; preds = %12
  %17 = sub nsw i64 %13, %14
  br label %18

18:                                               ; preds = %91, %16
  %19 = phi i64 [ 0, %16 ], [ %93, %91 ]
  %20 = phi i32 [ 1, %16 ], [ %92, %91 ]
  %21 = phi i64 [ %17, %16 ], [ %94, %91 ]
  %22 = getelementptr inbounds [100 x i8], [100 x i8]* %1, i64 0, i64 %19
  %23 = load i8, i8* %22, align 2, !tbaa !9
  %24 = icmp eq i8 %23, 32
  br i1 %24, label %25, label %30

25:                                               ; preds = %18
  %26 = sext i32 %20 to i64
  %27 = getelementptr inbounds [100 x i32], [100 x i32]* %2, i64 0, i64 %26
  %28 = trunc i64 %19 to i32
  store i32 %28, i32* %27, align 4, !tbaa !5
  %29 = add nsw i32 %20, 1
  br label %30

30:                                               ; preds = %18, %25
  %31 = phi i32 [ %29, %25 ], [ %20, %18 ]
  %32 = or i64 %19, 1
  %33 = getelementptr inbounds [100 x i8], [100 x i8]* %1, i64 0, i64 %32
  %34 = load i8, i8* %33, align 1, !tbaa !9
  %35 = icmp eq i8 %34, 32
  br i1 %35, label %86, label %91

36:                                               ; preds = %91, %12
  %37 = phi i32 [ undef, %12 ], [ %92, %91 ]
  %38 = phi i64 [ 0, %12 ], [ %93, %91 ]
  %39 = phi i32 [ 1, %12 ], [ %92, %91 ]
  %40 = icmp eq i64 %14, 0
  br i1 %40, label %50, label %41

41:                                               ; preds = %36
  %42 = getelementptr inbounds [100 x i8], [100 x i8]* %1, i64 0, i64 %38
  %43 = load i8, i8* %42, align 1, !tbaa !9
  %44 = icmp eq i8 %43, 32
  br i1 %44, label %45, label %50

45:                                               ; preds = %41
  %46 = sext i32 %39 to i64
  %47 = getelementptr inbounds [100 x i32], [100 x i32]* %2, i64 0, i64 %46
  %48 = trunc i64 %38 to i32
  store i32 %48, i32* %47, align 4, !tbaa !5
  %49 = add nsw i32 %39, 1
  br label %50

50:                                               ; preds = %45, %41, %36
  %51 = phi i32 [ %37, %36 ], [ %49, %45 ], [ %39, %41 ]
  %52 = sext i32 %51 to i64
  %53 = getelementptr inbounds [100 x i32], [100 x i32]* %2, i64 0, i64 %52
  store i32 %7, i32* %53, align 4, !tbaa !5
  %54 = icmp sgt i32 %51, 0
  br i1 %54, label %55, label %85

55:                                               ; preds = %10, %50
  %56 = phi i32 [ 1, %10 ], [ %51, %50 ]
  %57 = zext i32 %56 to i64
  br label %58

58:                                               ; preds = %82, %55
  %59 = phi i64 [ %57, %55 ], [ %84, %82 ]
  %60 = phi i32 [ %56, %55 ], [ %64, %82 ]
  %61 = getelementptr inbounds [100 x i32], [100 x i32]* %2, i64 0, i64 %59
  %62 = load i32, i32* %61, align 4, !tbaa !5
  %63 = add i32 %62, -1
  %64 = add nsw i32 %60, -1
  %65 = zext i32 %64 to i64
  %66 = getelementptr inbounds [100 x i32], [100 x i32]* %2, i64 0, i64 %65
  %67 = load i32, i32* %66, align 4, !tbaa !5
  %68 = icmp slt i32 %67, %63
  br i1 %68, label %69, label %80

69:                                               ; preds = %58
  %70 = sext i32 %67 to i64
  %71 = sext i32 %63 to i64
  br label %72

72:                                               ; preds = %69, %72
  %73 = phi i64 [ %70, %69 ], [ %74, %72 ]
  %74 = add nsw i64 %73, 1
  %75 = getelementptr inbounds [100 x i8], [100 x i8]* %1, i64 0, i64 %74
  %76 = load i8, i8* %75, align 1, !tbaa !9
  %77 = sext i8 %76 to i32
  %78 = call i32 @putchar(i32 %77)
  %79 = icmp eq i64 %74, %71
  br i1 %79, label %80, label %72, !llvm.loop !10

80:                                               ; preds = %72, %58
  %81 = icmp sgt i64 %59, 1
  br i1 %81, label %82, label %85

82:                                               ; preds = %80
  %83 = call i32 @putchar(i32 32)
  %84 = add nsw i64 %59, -1
  br label %58

85:                                               ; preds = %80, %50
  call void @llvm.lifetime.end.p0i8(i64 400, i8* nonnull %4) #5
  call void @llvm.lifetime.end.p0i8(i64 100, i8* nonnull %3) #5
  ret i32 0

86:                                               ; preds = %30
  %87 = sext i32 %31 to i64
  %88 = getelementptr inbounds [100 x i32], [100 x i32]* %2, i64 0, i64 %87
  %89 = trunc i64 %32 to i32
  store i32 %89, i32* %88, align 4, !tbaa !5
  %90 = add nsw i32 %31, 1
  br label %91

91:                                               ; preds = %86, %30
  %92 = phi i32 [ %90, %86 ], [ %31, %30 ]
  %93 = add nuw nsw i64 %19, 2
  %94 = add i64 %21, -2
  %95 = icmp eq i64 %94, 0
  br i1 %95, label %36, label %18, !llvm.loop !12
}

; Function Attrs: argmemonly mustprogress nofree nosync nounwind willreturn
declare void @llvm.lifetime.start.p0i8(i64 immarg, i8* nocapture) #1

declare i32 @gets(...) local_unnamed_addr #2

; Function Attrs: argmemonly mustprogress nofree nounwind readonly willreturn
declare i64 @strlen(i8* nocapture) local_unnamed_addr #3

; Function Attrs: argmemonly mustprogress nofree nosync nounwind willreturn
declare void @llvm.lifetime.end.p0i8(i64 immarg, i8* nocapture) #1

; Function Attrs: nofree nounwind
declare noundef i32 @putchar(i32 noundef) local_unnamed_addr #4


!llvm.module.flags = !{!0, !1, !2, !3}
!llvm.ident = !{!4}

!0 = !{i32 1, !"wchar_size", i32 4}
!1 = !{i32 7, !"PIC Level", i32 2}
!2 = !{i32 7, !"PIE Level", i32 2}
!3 = !{i32 7, !"uwtable", i32 1}
!4 = !{!"clang version 13.0.0"}
!5 = !{!6, !6, i64 0}
!6 = !{!"int", !7, i64 0}
!7 = !{!"omnipotent char", !8, i64 0}
!8 = !{!"Simple C/C++ TBAA"}
!9 = !{!7, !7, i64 0}
!10 = distinct !{!10, !11}
!11 = !{!"llvm.loop.mustprogress"}
!12 = distinct !{!12, !11}
